
object.riscv:	file format elf32-littleriscv

Disassembly of section .text:

80000000 <_start>:
80000000: 97 41 00 00  	auipc	gp, 4
80000004: 93 81 81 80  	addi	gp, gp, -2040
80000008: 93 0e 00 02  	li	t4, 32
8000000c: d7 fe 0e 0d  	vsetvli	t4, t4, e32, m1, ta, ma
80000010: b7 2e 00 00  	lui	t4, 2
80000014: f3 ae 0e 30  	csrrs	t4, mstatus, t4
80000018: 93 0e 00 00  	li	t4, 0
8000001c: 73 23 50 80  	csrr	t1, 2053
80000020: f3 23 60 80  	csrr	t2, 2054
80000024: 13 0e 00 40  	li	t3, 1024
80000028: 33 03 c3 03  	mul	t1, t1, t3
8000002c: 33 01 73 00  	add	sp, t1, t2
80000030: 13 02 00 00  	li	tp, 0

80000034 <.Lpcrel_hi1>:
80000034: 17 35 00 00  	auipc	a0, 3
80000038: 13 05 45 fd  	addi	a0, a0, -44

8000003c <.Lpcrel_hi2>:
8000003c: 17 36 00 00  	auipc	a2, 3
80000040: 13 06 c6 fc  	addi	a2, a2, -52
80000044: 63 08 c5 00  	beq	a0, a2, 0x80000054 <.Ltmp0>

80000048 <.Ltmp1>:
80000048: 23 20 05 00  	sw	zero, 0(a0)
8000004c: 13 05 45 00  	addi	a0, a0, 4
80000050: e3 6c c5 fe  	bltu	a0, a2, 0x80000048 <.Ltmp1>

80000054 <.Ltmp0>:
80000054: f3 22 30 80  	csrr	t0, 2051
80000058: 03 a3 02 00  	lw	t1, 0(t0)
8000005c: 03 a5 42 00  	lw	a0, 4(t0)
80000060: 83 a3 02 03  	lw	t2, 48(t0)
80000064: 03 ae 42 03  	lw	t3, 52(t0)

80000068 <.Lpcrel_hi3>:
80000068: 97 3e 00 00  	auipc	t4, 3
8000006c: 93 8e 8e f9  	addi	t4, t4, -104

80000070 <.Lpcrel_hi4>:
80000070: 17 3f 00 00  	auipc	t5, 3
80000074: 13 0f 4f f9  	addi	t5, t5, -108
80000078: 23 a0 7e 00  	sw	t2, 0(t4)
8000007c: 23 20 cf 01  	sw	t3, 0(t5)

80000080 <.Lpcrel_hi5>:
80000080: 97 0f 00 00  	auipc	t6, 0
80000084: 93 8f 8f 01  	addi	t6, t6, 24
80000088: 73 90 5f 30  	csrw	mtvec, t6
8000008c: e7 00 03 00  	jalr	t1
80000090: 0b 40 00 00  	endprg	x0, x0, x0
80000094: 6f 00 40 00  	j	0x80000098 <spike_end>

80000098 <spike_end>:
80000098: 13 03 10 00  	li	t1, 1

8000009c <.Lpcrel_hi6>:
8000009c: 97 12 00 00  	auipc	t0, 1
800000a0: 93 82 42 f6  	addi	t0, t0, -156
800000a4: 23 a0 62 00  	sw	t1, 0(t0)

800000a8 <NearestNeighbor>:
800000a8: 13 01 c1 00  	addi	sp, sp, 12
800000ac: 13 02 42 00  	addi	tp, tp, 4
800000b0: 0b 20 10 00  	regext	zero, zero, 1
800000b4: 57 40 02 5e  	vmv.v.x	v0, tp
800000b8: 23 2a 11 fe  	sw	ra, -12(sp)
800000bc: 23 2e a1 fe  	sw	a0, -4(sp)
800000c0: 83 22 85 00  	lw	t0, 8(a0)
800000c4: 23 2c 51 fe  	sw	t0, -8(sp)
800000c8: 57 40 00 5e  	vmv.v.x	v0, zero
800000cc: ef 00 80 0b  	jal	0x80000184 <_Z13get_global_idj>
800000d0: 83 22 81 ff  	lw	t0, -8(sp)
800000d4: d7 c0 02 5e  	vmv.v.x	v1, t0

800000d8 <.Lpcrel_hi0>:
800000d8: 17 03 00 00  	auipc	t1, 0
800000dc: 5b 30 03 06  	setrpc	zero, t1, 96
800000e0: 5b dc 00 04  	vbge	v0, v1, 0x80000138 <.LBB0_2>
800000e4: 03 24 c1 ff  	lw	s0, -4(sp)
800000e8: 83 22 04 01  	lw	t0, 16(s0)
800000ec: 03 23 c4 00  	lw	t1, 12(s0)
800000f0: 83 23 44 00  	lw	t2, 4(s0)
800000f4: 03 24 04 00  	lw	s0, 0(s0)
800000f8: d7 b0 01 96  	vsll.vi	v1, v0, 3
800000fc: d7 40 14 02  	vadd.vx	v1, v1, s0
80000100: 57 30 01 96  	vsll.vi	v0, v0, 2
80000104: 0b 20 10 00  	regext	zero, zero, 1
80000108: d7 c0 03 02  	vadd.vx	v1, v0, t2
8000010c: 7b a0 00 00  	vlw12.v	v0, 0(v1)
80000110: 57 41 03 5e  	vmv.v.x	v2, t1
80000114: fb a0 40 00  	vlw12.v	v1, 4(v1)
80000118: 57 10 20 0a  	vfsub.vv	v0, v2, v0
8000011c: 57 c1 02 5e  	vmv.v.x	v2, t0
80000120: d7 90 20 0a  	vfsub.vv	v1, v2, v1
80000124: d7 90 10 92  	vfmul.vv	v1, v1, v1
80000128: 57 10 10 a2  	vfmadd.vv	v0, v0, v1
8000012c: ef 00 00 02  	jal	0x8000014c <_Z4sqrtf>
80000130: 0b 20 80 00  	regext	zero, zero, 8
80000134: 7b e0 00 00  	vsw12.v	v0, 0(v1)

80000138 <.LBB0_2>:
80000138: 5b 20 00 00  	join	zero, zero, 0
8000013c: 83 20 41 ff  	lw	ra, -12(sp)
80000140: 13 01 41 ff  	addi	sp, sp, -12
80000144: 13 02 c2 ff  	addi	tp, tp, -4
80000148: 67 80 00 00  	ret

8000014c <_Z4sqrtf>:
8000014c: 13 01 41 00  	addi	sp, sp, 4
80000150: 23 2e 11 fe  	sw	ra, -4(sp)
80000154: ef 00 40 01  	jal	0x80000168 <_Z10__clc_sqrtf>
80000158: 83 20 c1 ff  	lw	ra, -4(sp)
8000015c: 0b c0 00 04  	barrier	x0, x0, 1
80000160: 13 01 c1 ff  	addi	sp, sp, -4
80000164: 67 80 00 00  	ret

80000168 <_Z10__clc_sqrtf>:
80000168: 13 01 41 00  	addi	sp, sp, 4
8000016c: 23 2e 11 fe  	sw	ra, -4(sp)
80000170: 57 10 00 4e  	vfsqrt.v	v0, v0
80000174: 83 20 c1 ff  	lw	ra, -4(sp)
80000178: 0b c0 00 04  	barrier	x0, x0, 1
8000017c: 13 01 c1 ff  	addi	sp, sp, -4
80000180: 67 80 00 00  	ret

80000184 <_Z13get_global_idj>:
80000184: 13 01 41 00  	addi	sp, sp, 4
80000188: 23 2e 11 fe  	sw	ra, -4(sp)
8000018c: 93 02 20 00  	li	t0, 2
80000190: d7 c0 02 5e  	vmv.v.x	v1, t0

80000194 <.Lpcrel_hi0>:
80000194: 17 03 00 00  	auipc	t1, 0
80000198: 5b 30 c3 04  	setrpc	zero, t1, 76
8000019c: 5b 88 00 02  	vbeq	v0, v1, 0x800001cc <.LBB0_4>
800001a0: 93 02 10 00  	li	t0, 1
800001a4: d7 c0 02 5e  	vmv.v.x	v1, t0

800001a8 <.Lpcrel_hi1>:
800001a8: 17 03 00 00  	auipc	t1, 0
800001ac: 5b 30 83 03  	setrpc	zero, t1, 56
800001b0: 5b 82 00 02  	vbeq	v0, v1, 0x800001d4 <.LBB0_5>
800001b4: d7 40 00 5e  	vmv.v.x	v1, zero

800001b8 <.Lpcrel_hi2>:
800001b8: 17 03 00 00  	auipc	t1, 0
800001bc: 5b 30 83 02  	setrpc	zero, t1, 40
800001c0: 5b 9e 00 00  	vbne	v0, v1, 0x800001dc <.LBB0_6>
800001c4: ef 00 80 16  	jal	0x8000032c <__builtin_riscv_global_id_x>
800001c8: 6f 00 80 01  	j	0x800001e0 <.LBB0_7>

800001cc <.LBB0_4>:
800001cc: ef 00 c0 1b  	jal	0x80000388 <__builtin_riscv_global_id_z>
800001d0: 6f 00 00 01  	j	0x800001e0 <.LBB0_7>

800001d4 <.LBB0_5>:
800001d4: ef 00 80 18  	jal	0x8000035c <__builtin_riscv_global_id_y>
800001d8: 6f 00 80 00  	j	0x800001e0 <.LBB0_7>

800001dc <.LBB0_6>:
800001dc: 57 40 00 5e  	vmv.v.x	v0, zero

800001e0 <.LBB0_7>:
800001e0: 5b 20 00 00  	join	zero, zero, 0
800001e4: 83 20 c1 ff  	lw	ra, -4(sp)
800001e8: 0b c0 00 04  	barrier	x0, x0, 1
800001ec: 13 01 c1 ff  	addi	sp, sp, -4
800001f0: 67 80 00 00  	ret

800001f4 <__builtin_riscv_workitem_linear_id>:
800001f4: 73 25 30 80  	csrr	a0, 2051
800001f8: 73 23 00 80  	csrr	t1, 2048
800001fc: 57 a1 08 52  	vid.v	v2
80000200: 57 40 23 02  	vadd.vx	v0, v2, t1
80000204: 67 80 00 00  	ret

80000208 <__builtin_riscv_global_linear_id>:
80000208: 13 01 41 00  	addi	sp, sp, 4
8000020c: 23 2e 11 fe  	sw	ra, -4(sp)
80000210: f3 26 30 80  	csrr	a3, 2051
80000214: 83 a2 86 00  	lw	t0, 8(a3)
80000218: ef 00 40 11  	jal	0x8000032c <__builtin_riscv_global_id_x>
8000021c: 83 ae 46 02  	lw	t4, 36(a3)
80000220: d7 c2 0e 0a  	vsub.vx	v5, v0, t4
80000224: 13 0f 10 00  	li	t5, 1
80000228: 63 82 e2 05  	beq	t0, t5, 0x8000026c <.GLR>

8000022c <.GL_2DIM>:
8000022c: ef 00 00 13  	jal	0x8000035c <__builtin_riscv_global_id_y>
80000230: 83 af c6 00  	lw	t6, 12(a3)
80000234: 03 af 06 01  	lw	t5, 16(a3)
80000238: 57 43 0f 0a  	vsub.vx	v6, v0, t5
8000023c: 57 e3 6f 96  	vmul.vx	v6, v6, t6
80000240: d7 02 53 02  	vadd.vv	v5, v5, v6
80000244: 13 0f 20 00  	li	t5, 2
80000248: 63 82 e2 03  	beq	t0, t5, 0x8000026c <.GLR>

8000024c <.GL_3DIM>:
8000024c: ef 00 c0 13  	jal	0x80000388 <__builtin_riscv_global_id_z>
80000250: 83 af c6 00  	lw	t6, 12(a3)
80000254: 03 a3 06 01  	lw	t1, 16(a3)
80000258: 03 af c6 02  	lw	t5, 44(a3)
8000025c: 57 43 0f 0a  	vsub.vx	v6, v0, t5
80000260: 57 e3 6f 96  	vmul.vx	v6, v6, t6
80000264: 57 63 63 96  	vmul.vx	v6, v6, t1
80000268: d7 02 53 02  	vadd.vv	v5, v5, v6

8000026c <.GLR>:
8000026c: 57 40 50 02  	vadd.vx	v0, v5, zero
80000270: 83 20 c1 ff  	lw	ra, -4(sp)
80000274: 0b c0 00 04  	barrier	x0, x0, 1
80000278: 13 01 c1 ff  	addi	sp, sp, -4
8000027c: 67 80 00 00  	ret

80000280 <__builtin_riscv_workgroup_id_x>:
80000280: 73 25 80 80  	csrr	a0, 2056
80000284: 57 40 05 5e  	vmv.v.x	v0, a0
80000288: 67 80 00 00  	ret

8000028c <__builtin_riscv_workgroup_id_y>:
8000028c: 73 25 90 80  	csrr	a0, 2057
80000290: 57 40 05 5e  	vmv.v.x	v0, a0
80000294: 67 80 00 00  	ret

80000298 <__builtin_riscv_workgroup_id_z>:
80000298: 73 25 a0 80  	csrr	a0, 2058
8000029c: 57 40 05 5e  	vmv.v.x	v0, a0
800002a0: 67 80 00 00  	ret

800002a4 <__builtin_riscv_workitem_id_x>:
800002a4: 73 25 30 80  	csrr	a0, 2051
800002a8: 83 22 85 00  	lw	t0, 8(a0)
800002ac: 73 23 00 80  	csrr	t1, 2048
800002b0: 57 a1 08 52  	vid.v	v2
800002b4: 57 40 23 02  	vadd.vx	v0, v2, t1
800002b8: 93 03 10 00  	li	t2, 1
800002bc: 63 86 72 00  	beq	t0, t2, 0x800002c8 <.WIXR>
800002c0: 03 2e 85 01  	lw	t3, 24(a0)
800002c4: 57 60 0e 8a  	vremu.vx	v0, v0, t3

800002c8 <.WIXR>:
800002c8: 67 80 00 00  	ret

800002cc <__builtin_riscv_workitem_id_y>:
800002cc: 73 25 30 80  	csrr	a0, 2051
800002d0: 83 22 85 00  	lw	t0, 8(a0)
800002d4: 73 23 00 80  	csrr	t1, 2048
800002d8: 57 a1 08 52  	vid.v	v2
800002dc: 57 40 23 02  	vadd.vx	v0, v2, t1
800002e0: 03 2e 85 01  	lw	t3, 24(a0)
800002e4: 93 03 30 00  	li	t2, 3
800002e8: 63 86 72 00  	beq	t0, t2, 0x800002f4 <.WIY3>

800002ec <.WIY2>:
800002ec: 57 60 0e 82  	vdivu.vx	v0, v0, t3
800002f0: 67 80 00 00  	ret

800002f4 <.WIY3>:
800002f4: 83 2e c5 01  	lw	t4, 28(a0)
800002f8: b3 8e ce 03  	mul	t4, t4, t3
800002fc: 57 e0 0e 8a  	vremu.vx	v0, v0, t4
80000300: 57 60 0e 82  	vdivu.vx	v0, v0, t3
80000304: 67 80 00 00  	ret

80000308 <__builtin_riscv_workitem_id_z>:
80000308: 73 25 30 80  	csrr	a0, 2051
8000030c: 73 23 00 80  	csrr	t1, 2048
80000310: 57 a1 08 52  	vid.v	v2
80000314: 57 40 23 02  	vadd.vx	v0, v2, t1
80000318: 03 2e 85 01  	lw	t3, 24(a0)
8000031c: 83 2e c5 01  	lw	t4, 28(a0)
80000320: b3 8e ce 03  	mul	t4, t4, t3
80000324: 57 e0 0e 82  	vdivu.vx	v0, v0, t4
80000328: 67 80 00 00  	ret

8000032c <__builtin_riscv_global_id_x>:
8000032c: 13 01 41 00  	addi	sp, sp, 4
80000330: 23 2e 11 fe  	sw	ra, -4(sp)
80000334: ef f0 1f f7  	jal	0x800002a4 <__builtin_riscv_workitem_id_x>
80000338: 73 25 30 80  	csrr	a0, 2051
8000033c: 73 23 80 80  	csrr	t1, 2056
80000340: 03 2e 85 01  	lw	t3, 24(a0)
80000344: b3 0f c3 03  	mul	t6, t1, t3
80000348: 57 c0 0f 02  	vadd.vx	v0, v0, t6
8000034c: 83 20 c1 ff  	lw	ra, -4(sp)
80000350: 0b c0 00 04  	barrier	x0, x0, 1
80000354: 13 01 c1 ff  	addi	sp, sp, -4
80000358: 67 80 00 00  	ret

8000035c <__builtin_riscv_global_id_y>:
8000035c: 13 01 41 00  	addi	sp, sp, 4
80000360: 23 2e 11 fe  	sw	ra, -4(sp)
80000364: ef f0 9f f6  	jal	0x800002cc <__builtin_riscv_workitem_id_y>
80000368: 73 23 90 80  	csrr	t1, 2057
8000036c: 83 23 c5 01  	lw	t2, 28(a0)
80000370: 33 0e 73 02  	mul	t3, t1, t2
80000374: 57 40 0e 02  	vadd.vx	v0, v0, t3
80000378: 83 20 c1 ff  	lw	ra, -4(sp)
8000037c: 0b c0 00 04  	barrier	x0, x0, 1
80000380: 13 01 c1 ff  	addi	sp, sp, -4
80000384: 67 80 00 00  	ret

80000388 <__builtin_riscv_global_id_z>:
80000388: 13 01 41 00  	addi	sp, sp, 4
8000038c: 23 2e 11 fe  	sw	ra, -4(sp)
80000390: ef f0 9f f7  	jal	0x80000308 <__builtin_riscv_workitem_id_z>
80000394: 73 25 30 80  	csrr	a0, 2051
80000398: 73 23 a0 80  	csrr	t1, 2058
8000039c: 83 23 05 02  	lw	t2, 32(a0)
800003a0: b3 83 63 02  	mul	t2, t2, t1
800003a4: 57 c0 03 02  	vadd.vx	v0, v0, t2
800003a8: 83 20 c1 ff  	lw	ra, -4(sp)
800003ac: 0b c0 00 04  	barrier	x0, x0, 1
800003b0: 13 01 c1 ff  	addi	sp, sp, -4
800003b4: 67 80 00 00  	ret

800003b8 <__builtin_riscv_local_size_x>:
800003b8: 73 25 30 80  	csrr	a0, 2051
800003bc: 83 22 85 01  	lw	t0, 24(a0)
800003c0: 57 c0 02 5e  	vmv.v.x	v0, t0
800003c4: 67 80 00 00  	ret

800003c8 <__builtin_riscv_local_size_y>:
800003c8: 73 25 30 80  	csrr	a0, 2051
800003cc: 83 22 c5 01  	lw	t0, 28(a0)
800003d0: 57 c0 02 5e  	vmv.v.x	v0, t0
800003d4: 67 80 00 00  	ret

800003d8 <__builtin_riscv_local_size_z>:
800003d8: 73 25 30 80  	csrr	a0, 2051
800003dc: 83 22 05 02  	lw	t0, 32(a0)
800003e0: 57 c0 02 5e  	vmv.v.x	v0, t0
800003e4: 67 80 00 00  	ret

800003e8 <__builtin_riscv_global_size_x>:
800003e8: 73 25 30 80  	csrr	a0, 2051
800003ec: 83 22 c5 00  	lw	t0, 12(a0)
800003f0: 57 c0 02 5e  	vmv.v.x	v0, t0
800003f4: 67 80 00 00  	ret

800003f8 <__builtin_riscv_global_size_y>:
800003f8: 73 25 30 80  	csrr	a0, 2051
800003fc: 83 22 05 01  	lw	t0, 16(a0)
80000400: 57 c0 02 5e  	vmv.v.x	v0, t0
80000404: 67 80 00 00  	ret

80000408 <__builtin_riscv_global_size_z>:
80000408: 73 25 30 80  	csrr	a0, 2051
8000040c: 83 22 45 01  	lw	t0, 20(a0)
80000410: 57 c0 02 5e  	vmv.v.x	v0, t0
80000414: 67 80 00 00  	ret

80000418 <__builtin_riscv_global_offset_x>:
80000418: 73 25 30 80  	csrr	a0, 2051
8000041c: 83 22 45 02  	lw	t0, 36(a0)
80000420: 57 c0 02 5e  	vmv.v.x	v0, t0
80000424: 67 80 00 00  	ret

80000428 <__builtin_riscv_global_offset_y>:
80000428: 73 25 30 80  	csrr	a0, 2051
8000042c: 83 22 85 02  	lw	t0, 40(a0)
80000430: 57 c0 02 5e  	vmv.v.x	v0, t0
80000434: 67 80 00 00  	ret

80000438 <__builtin_riscv_global_offset_z>:
80000438: 73 25 30 80  	csrr	a0, 2051
8000043c: 83 22 c5 02  	lw	t0, 44(a0)
80000440: 57 c0 02 5e  	vmv.v.x	v0, t0
80000444: 67 80 00 00  	ret

80000448 <__builtin_riscv_num_groups_x>:
80000448: 73 25 30 80  	csrr	a0, 2051
8000044c: 03 23 c5 00  	lw	t1, 12(a0)
80000450: 83 22 85 01  	lw	t0, 24(a0)
80000454: 33 53 53 02  	divu	t1, t1, t0
80000458: 57 40 03 5e  	vmv.v.x	v0, t1
8000045c: 67 80 00 00  	ret

80000460 <__builtin_riscv_num_groups_y>:
80000460: 73 25 30 80  	csrr	a0, 2051
80000464: 03 23 05 01  	lw	t1, 16(a0)
80000468: 83 22 c5 01  	lw	t0, 28(a0)
8000046c: 33 53 53 02  	divu	t1, t1, t0
80000470: 57 40 03 5e  	vmv.v.x	v0, t1
80000474: 67 80 00 00  	ret

80000478 <__builtin_riscv_num_groups_z>:
80000478: 73 25 30 80  	csrr	a0, 2051
8000047c: 03 23 45 01  	lw	t1, 20(a0)
80000480: 83 23 05 02  	lw	t2, 32(a0)
80000484: 33 53 73 02  	divu	t1, t1, t2
80000488: 57 40 03 5e  	vmv.v.x	v0, t1
8000048c: 67 80 00 00  	ret

80000490 <__builtin_riscv_work_dim>:
80000490: 73 25 30 80  	csrr	a0, 2051
80000494: 83 22 85 00  	lw	t0, 8(a0)
80000498: 57 c0 02 5e  	vmv.v.x	v0, t0
8000049c: 67 80 00 00  	ret
